# SymbolsHelper-Confirmed: 4.96.0 amd64
libKF5PlasmaQuick.so.5 libkf5plasmaquick5-v4.96.0 #MINVER#
 _ZN10ConfigView11qt_metacallEN11QMetaObject4CallEiPPv@Base 4.96.0
 _ZN10ConfigView11qt_metacastEPKc@Base 4.96.0
 _ZN10ConfigView11resizeEventEP12QResizeEvent@Base 4.96.0
 _ZN10ConfigView16staticMetaObjectE@Base 4.96.0
 _ZN10ConfigView4initEv@Base 4.96.0
 _ZN10ConfigView9hideEventEP10QHideEvent@Base 4.96.0
 _ZN10ConfigViewC1EPN6Plasma6AppletEP7QWindow@Base 4.96.0
 _ZN10ConfigViewC2EPN6Plasma6AppletEP7QWindow@Base 4.96.0
 _ZN10ConfigViewD0Ev@Base 4.96.0
 _ZN10ConfigViewD1Ev@Base 4.96.0
 _ZN10ConfigViewD2Ev@Base 4.96.0
 _ZN11ConfigModel10categoriesEv@Base 4.96.0
 _ZN11ConfigModel11qt_metacallEN11QMetaObject4CallEiPPv@Base 4.96.0
 _ZN11ConfigModel11qt_metacastEPKc@Base 4.96.0
 _ZN11ConfigModel12countChangedEv@Base 4.96.0
 _ZN11ConfigModel14appendCategoryERK7QStringS2_S2_S2_@Base 4.96.0
 _ZN11ConfigModel16staticMetaObjectE@Base 4.96.0
 _ZN11ConfigModel5clearEv@Base 4.96.0
 _ZN11ConfigModel9setAppletEPN6Plasma6AppletE@Base 4.96.0
 _ZN11ConfigModelC1EP7QObject@Base 4.96.0
 _ZN11ConfigModelC2EP7QObject@Base 4.96.0
 _ZN11ConfigModelD0Ev@Base 4.96.0
 _ZN11ConfigModelD1Ev@Base 4.96.0
 _ZN11ConfigModelD2Ev@Base 4.96.0
 _ZN15AppletQuickItem10itemChangeEN10QQuickItem10ItemChangeERKNS0_14ItemChangeDataE@Base 4.96.0
 _ZN15AppletQuickItem11qt_metacallEN11QMetaObject4CallEiPPv@Base 4.96.0
 _ZN15AppletQuickItem11qt_metacastEPKc@Base 4.96.0
 _ZN15AppletQuickItem11setExpandedEb@Base 4.96.0
 _ZN15AppletQuickItem14setSwitchWidthEi@Base 4.96.0
 _ZN15AppletQuickItem15expandedChangedEb@Base 4.96.0
 _ZN15AppletQuickItem15geometryChangedERK6QRectFS2_@Base 4.96.0
 _ZN15AppletQuickItem15setSwitchHeightEi@Base 4.96.0
 _ZN15AppletQuickItem16setAppletPackageERKN6Plasma7PackageE@Base 4.96.0
 _ZN15AppletQuickItem16setCoronaPackageERKN6Plasma7PackageE@Base 4.96.0
 _ZN15AppletQuickItem16staticMetaObjectE@Base 4.96.0
 _ZN15AppletQuickItem18fullRepresentationEv@Base 4.96.0
 _ZN15AppletQuickItem18switchWidthChangedEi@Base 4.96.0
 _ZN15AppletQuickItem19switchHeightChangedEi@Base 4.96.0
 _ZN15AppletQuickItem21compactRepresentationEv@Base 4.96.0
 _ZN15AppletQuickItem21qmlAttachedPropertiesEP7QObject@Base 4.96.0
 _ZN15AppletQuickItem21setFullRepresentationEP13QQmlComponent@Base 4.96.0
 _ZN15AppletQuickItem22fullRepresentationItemEv@Base 4.96.0
 _ZN15AppletQuickItem23preferredRepresentationEv@Base 4.96.0
 _ZN15AppletQuickItem24setCompactRepresentationEP13QQmlComponent@Base 4.96.0
 _ZN15AppletQuickItem25compactRepresentationItemEv@Base 4.96.0
 _ZN15AppletQuickItem25fullRepresentationChangedEP13QQmlComponent@Base 4.96.0
 _ZN15AppletQuickItem26setPreferredRepresentationEP13QQmlComponent@Base 4.96.0
 _ZN15AppletQuickItem28compactRepresentationChangedEP13QQmlComponent@Base 4.96.0
 _ZN15AppletQuickItem29fullRepresentationItemChangedEP7QObject@Base 4.96.0
 _ZN15AppletQuickItem30preferredRepresentationChangedEP13QQmlComponent@Base 4.96.0
 _ZN15AppletQuickItem32compactRepresentationItemChangedEP7QObject@Base 4.96.0
 _ZN15AppletQuickItem4initEv@Base 4.96.0
 _ZN15AppletQuickItem9qmlObjectEv@Base 4.96.0
 _ZN15AppletQuickItemC1EPN6Plasma6AppletEP10QQuickItem@Base 4.96.0
 _ZN15AppletQuickItemC2EPN6Plasma6AppletEP10QQuickItem@Base 4.96.0
 _ZN15AppletQuickItemD0Ev@Base 4.96.0
 _ZN15AppletQuickItemD1Ev@Base 4.96.0
 _ZN15AppletQuickItemD2Ev@Base 4.96.0
 _ZN15PlasmaQuickView11qt_metacallEN11QMetaObject4CallEiPPv@Base 4.96.0
 _ZN15PlasmaQuickView11qt_metacastEPKc@Base 4.96.0
 _ZN15PlasmaQuickView11setLocationEN6Plasma5Types8LocationE@Base 4.96.0
 _ZN15PlasmaQuickView14screenGeometryEv@Base 4.96.0
 _ZN15PlasmaQuickView14setContainmentEPN6Plasma11ContainmentE@Base 4.96.0
 _ZN15PlasmaQuickView15locationChangedEN6Plasma5Types8LocationE@Base 4.96.0
 _ZN15PlasmaQuickView16staticMetaObjectE@Base 4.96.0
 _ZN15PlasmaQuickView17formFactorChangedEN6Plasma5Types10FormFactorE@Base 4.96.0
 _ZN15PlasmaQuickView18containmentChangedEv@Base 4.96.0
 _ZN15PlasmaQuickView20coronaPackageChangedERKN6Plasma7PackageE@Base 4.96.0
 _ZN15PlasmaQuickView21screenGeometryChangedEv@Base 4.96.0
 _ZN15PlasmaQuickView26showConfigurationInterfaceEPN6Plasma6AppletE@Base 4.96.0
 _ZN15PlasmaQuickViewC1EPN6Plasma6CoronaEP7QWindow@Base 4.96.0
 _ZN15PlasmaQuickViewC2EPN6Plasma6CoronaEP7QWindow@Base 4.96.0
 _ZN15PlasmaQuickViewD0Ev@Base 4.96.0
 _ZN15PlasmaQuickViewD1Ev@Base 4.96.0
 _ZN15PlasmaQuickViewD2Ev@Base 4.96.0
 _ZN21PackageUrlInterceptor14addAllowedPathERK7QString@Base 4.96.0
 _ZN21PackageUrlInterceptor17removeAllowedPathERK7QString@Base 4.96.0
 _ZN21PackageUrlInterceptor9interceptERK4QUrlN26QQmlAbstractUrlInterceptor8DataTypeE@Base 4.96.0
 _ZN21PackageUrlInterceptorC1EP10QQmlEngineRKN6Plasma7PackageE@Base 4.96.0
 _ZN21PackageUrlInterceptorC2EP10QQmlEngineRKN6Plasma7PackageE@Base 4.96.0
 _ZN21PackageUrlInterceptorD0Ev@Base 4.96.0
 _ZN21PackageUrlInterceptorD1Ev@Base 4.96.0
 _ZN21PackageUrlInterceptorD2Ev@Base 4.96.0
 _ZNK10ConfigView10metaObjectEv@Base 4.96.0
 _ZNK10ConfigView11configModelEv@Base 4.96.0
 _ZNK11ConfigModel10metaObjectEv@Base 4.96.0
 _ZNK11ConfigModel3getEi@Base 4.96.0
 _ZNK11ConfigModel4dataERK11QModelIndexi@Base 4.96.0
 _ZNK11ConfigModel6appletEv@Base 4.96.0
 _ZNK11ConfigModel8rowCountERK11QModelIndex@Base 4.96.0
 _ZNK15AppletQuickItem10isExpandedEv@Base 4.96.0
 _ZNK15AppletQuickItem10metaObjectEv@Base 4.96.0
 _ZNK15AppletQuickItem11switchWidthEv@Base 4.96.0
 _ZNK15AppletQuickItem12switchHeightEv@Base 4.96.0
 _ZNK15AppletQuickItem13appletPackageEv@Base 4.96.0
 _ZNK15AppletQuickItem13coronaPackageEv@Base 4.96.0
 _ZNK15AppletQuickItem6appletEv@Base 4.96.0
 _ZNK15PlasmaQuickView10formFactorEv@Base 4.96.0
 _ZNK15PlasmaQuickView10metaObjectEv@Base 4.96.0
 _ZNK15PlasmaQuickView11containmentEv@Base 4.96.0
 _ZNK15PlasmaQuickView6configEv@Base 4.96.0
 _ZNK15PlasmaQuickView6coronaEv@Base 4.96.0
 _ZNK15PlasmaQuickView8locationEv@Base 4.96.0
 _ZNK21PackageUrlInterceptor12allowedPathsEv@Base 4.96.0
 _ZTI10ConfigView@Base 4.96.0
 _ZTI11ConfigModel@Base 4.96.0
 _ZTI15AppletQuickItem@Base 4.96.0
 _ZTI15PlasmaQuickView@Base 4.96.0
 _ZTI21PackageUrlInterceptor@Base 4.96.0
 _ZTI26QQmlAbstractUrlInterceptor@Base 4.96.0
 _ZTS10ConfigView@Base 4.96.0
 _ZTS11ConfigModel@Base 4.96.0
 _ZTS15AppletQuickItem@Base 4.96.0
 _ZTS15PlasmaQuickView@Base 4.96.0
 _ZTS21PackageUrlInterceptor@Base 4.96.0
 _ZTS26QQmlAbstractUrlInterceptor@Base 4.96.0
 _ZTV10ConfigView@Base 4.96.0
 _ZTV11ConfigModel@Base 4.96.0
 _ZTV15AppletQuickItem@Base 4.96.0
 _ZTV15PlasmaQuickView@Base 4.96.0
 _ZTV21PackageUrlInterceptor@Base 4.96.0
 _ZTV26QQmlAbstractUrlInterceptor@Base 4.96.0
 _ZZZN21PackageUrlInterceptor13prefixForTypeEN26QQmlAbstractUrlInterceptor8DataTypeERK7QStringENKUlvE0_clEvE15qstring_literal@Base 4.96.0
 _ZZZN21PackageUrlInterceptor13prefixForTypeEN26QQmlAbstractUrlInterceptor8DataTypeERK7QStringENKUlvE1_clEvE15qstring_literal@Base 4.96.0
 _ZZZN21PackageUrlInterceptor13prefixForTypeEN26QQmlAbstractUrlInterceptor8DataTypeERK7QStringENKUlvE2_clEvE15qstring_literal@Base 4.96.0
 _ZZZN21PackageUrlInterceptor13prefixForTypeEN26QQmlAbstractUrlInterceptor8DataTypeERK7QStringENKUlvE3_clEvE15qstring_literal@Base 4.96.0
 _ZZZN21PackageUrlInterceptor13prefixForTypeEN26QQmlAbstractUrlInterceptor8DataTypeERK7QStringENKUlvE4_clEvE15qstring_literal@Base 4.96.0
 _ZZZN21PackageUrlInterceptor13prefixForTypeEN26QQmlAbstractUrlInterceptor8DataTypeERK7QStringENKUlvE5_clEvE15qstring_literal@Base 4.96.0
 _ZZZN21PackageUrlInterceptor13prefixForTypeEN26QQmlAbstractUrlInterceptor8DataTypeERK7QStringENKUlvE6_clEvE15qstring_literal@Base 4.96.0
 _ZZZN21PackageUrlInterceptor13prefixForTypeEN26QQmlAbstractUrlInterceptor8DataTypeERK7QStringENKUlvE_clEvE15qstring_literal@Base 4.96.0
 (c++)"non-virtual thunk to AppletQuickItem::~AppletQuickItem()@Base" 4.96.0
 (c++)"non-virtual thunk to ConfigView::~ConfigView()@Base" 4.96.0
 (c++)"non-virtual thunk to PlasmaQuickView::~PlasmaQuickView()@Base" 4.96.0
